target datalayout = "e-m:e-p270:32:32-p271:32:32-p272:64:64-i64:64-i128:128-f80:128-n8:16:32:64-S128"
target triple = "x86_64-pc-linux-gnu"

%struct.qctx_st = type { ptr, ptr, ptr, ptr, ptr, i32, i32, i32, i32 }

; Function Attrs: nounwind uwtable
define internal i32 @expect_quic_conn_only(ptr noundef %0, ptr noundef %1) #0 {
  %3 = alloca ptr, align 8
  %4 = alloca ptr, align 8
  store ptr %0, ptr %3, align 8, !tbaa !136
  store ptr %1, ptr %4, align 8, !tbaa !119
  %5 = load ptr, ptr %3, align 8, !tbaa !136
  %6 = load ptr, ptr %4, align 8, !tbaa !119
  %7 = call i32 @expect_quic_as(ptr noundef %5, ptr noundef %6, i32 noundef 1)
  ret i32 %7
}

; Function Attrs: nounwind uwtable
define ptr @ossl_quic_conn_stream_new(ptr noundef %0, i64 noundef %1) #0 {
  %3 = alloca ptr, align 8
  %4 = alloca ptr, align 8
  %5 = alloca i64, align 8
  %6 = alloca %struct.qctx_st, align 8
  %7 = alloca i32, align 4
  store ptr %0, ptr %4, align 8, !tbaa !136
  store i64 %1, ptr %5, align 8, !tbaa !169
  call void @llvm.lifetime.start.p0(i64 56, ptr %6) #10
  %8 = load ptr, ptr %4, align 8, !tbaa !136
  %9 = call i32 @expect_quic_conn_only(ptr noundef %8, ptr noundef %6)
  %10 = icmp ne i32 %9, 0
  br i1 %10, label %12, label %11

11:                                               ; preds = %2
  store ptr null, ptr %3, align 8
  store i32 1, ptr %7, align 4
  br label %15

12:                                               ; preds = %2
  %13 = load i64, ptr %5, align 8, !tbaa !169
  %14 = call ptr @quic_conn_stream_new(ptr noundef %6, i64 noundef %13, i32 noundef 1)
  store ptr %14, ptr %3, align 8
  store i32 1, ptr %7, align 4
  br label %15

15:                                               ; preds = %12, %11
  call void @llvm.lifetime.end.p0(i64 56, ptr %6) #10
  %16 = load ptr, ptr %3, align 8
  ret ptr %16
}