; Function Attrs: nounwind uwtable
define ptr @ossl_quic_conn_stream_new(ptr noundef %0, i64 noundef %1) local_unnamed_addr #0 {
  %3 = alloca %struct.qctx_st, align 8
  call void @llvm.lifetime.start.p0(i64 56, ptr nonnull %3) #12
  %4 = call fastcc range(i32 0, 2) i32 @expect_quic_as(ptr noundef %0, ptr noundef nonnull %3, i32 noundef 1)
  %.not = icmp eq i32 %4, 0
  br i1 %.not, label %7, label %5

5:                                                ; preds = %2
  %6 = call fastcc ptr @quic_conn_stream_new(ptr noundef %3, i64 noundef %1, i32 noundef 1)
  br label %7

7:                                                ; preds = %2, %5
  %.0 = phi ptr [ %6, %5 ], [ null, %2 ]
  call void @llvm.lifetime.end.p0(i64 56, ptr nonnull %3) #12
  ret ptr %.0
}